; Function Attrs: nounwind uwtable
define ptr @l_EStateM_tryCatch___rarg(ptr noundef %0, ptr readnone captures(none) %1, ptr noundef %2, ptr noundef %3, ptr noundef %4) #0 {
  %6 = getelementptr inbounds nuw i8, ptr %0, i64 8
  %7 = load ptr, ptr %6, align 8, !tbaa !10
  %8 = ptrtoint ptr %7 to i64
  %9 = and i64 %8, 1
  %.not = icmp eq i64 %9, 0
  br i1 %.not, label %10, label %lean_inc.exit31

10:                                               ; preds = %5
  %.val.i = load i32, ptr %7, align 4, !tbaa !4
  %11 = icmp sgt i32 %.val.i, 0
  br i1 %11, label %12, label %14, !prof !9

12:                                               ; preds = %10
  %13 = add nuw i32 %.val.i, 1
  store i32 %13, ptr %7, align 4, !tbaa !4
  br label %lean_inc.exit31

14:                                               ; preds = %10
  %.not.i44 = icmp eq i32 %.val.i, 0
  br i1 %.not.i44, label %lean_inc.exit31, label %15

15:                                               ; preds = %14
  tail call void @lean_inc_ref_cold(ptr noundef nonnull %7) #11
  br label %lean_inc.exit31

lean_inc.exit31:                                  ; preds = %15, %14, %12, %5
  %16 = ptrtoint ptr %4 to i64
  %17 = and i64 %16, 1
  %.not59 = icmp eq i64 %17, 0
  br i1 %.not59, label %18, label %lean_inc.exit30

18:                                               ; preds = %lean_inc.exit31
  %.val.i45 = load i32, ptr %4, align 4, !tbaa !4
  %19 = icmp sgt i32 %.val.i45, 0
  br i1 %19, label %20, label %22, !prof !9

20:                                               ; preds = %18
  %21 = add nuw i32 %.val.i45, 1
  store i32 %21, ptr %4, align 4, !tbaa !4
  br label %lean_inc.exit30

22:                                               ; preds = %18
  %.not.i46 = icmp eq i32 %.val.i45, 0
  br i1 %.not.i46, label %lean_inc.exit30, label %23

23:                                               ; preds = %22
  tail call void @lean_inc_ref_cold(ptr noundef nonnull %4) #11
  br label %lean_inc.exit30

lean_inc.exit30:                                  ; preds = %23, %22, %20, %lean_inc.exit31
  %24 = tail call ptr @lean_apply_1(ptr noundef %7, ptr noundef %4) #11
  %25 = tail call ptr @lean_apply_1(ptr noundef %2, ptr noundef %4) #11
  %26 = ptrtoint ptr %25 to i64
  %27 = and i64 %26, 1
  %.not.i48 = icmp eq i64 %27, 0
  br i1 %.not.i48, label %31, label %28

28:                                               ; preds = %lean_inc.exit30
  %29 = lshr i64 %26, 1
  %30 = trunc i64 %29 to i32
  br label %lean_obj_tag.exit

31:                                               ; preds = %lean_inc.exit30
  %32 = getelementptr i8, ptr %25, i64 4
  %.val.i49 = load i32, ptr %32, align 4
  %33 = lshr i32 %.val.i49, 24
  br label %lean_obj_tag.exit

lean_obj_tag.exit:                                ; preds = %28, %31
  %.0.i = phi i32 [ %30, %28 ], [ %33, %31 ]
  %34 = icmp eq i32 %.0.i, 0
  br i1 %34, label %35, label %63

35:                                               ; preds = %lean_obj_tag.exit
  %36 = ptrtoint ptr %24 to i64
  %37 = and i64 %36, 1
  %.not65 = icmp eq i64 %37, 0
  br i1 %.not65, label %38, label %lean_dec.exit35

38:                                               ; preds = %35
  %39 = load i32, ptr %24, align 4, !tbaa !4
  %40 = icmp sgt i32 %39, 1
  br i1 %40, label %41, label %43, !prof !9

41:                                               ; preds = %38
  %42 = add nsw i32 %39, -1
  store i32 %42, ptr %24, align 4, !tbaa !4
  br label %lean_dec.exit35

43:                                               ; preds = %38
  %.not.i = icmp eq i32 %39, 0
  br i1 %.not.i, label %lean_dec.exit35, label %44

44:                                               ; preds = %43
  tail call void @lean_dec_ref_cold(ptr noundef nonnull %24) #11
  br label %lean_dec.exit35

lean_dec.exit35:                                  ; preds = %44, %43, %41, %35
  %45 = ptrtoint ptr %3 to i64
  %46 = and i64 %45, 1
  %.not66 = icmp eq i64 %46, 0
  br i1 %.not66, label %47, label %lean_dec.exit34

47:                                               ; preds = %lean_dec.exit35
  %48 = load i32, ptr %3, align 4, !tbaa !4
  %49 = icmp sgt i32 %48, 1
  br i1 %49, label %50, label %52, !prof !9

50:                                               ; preds = %47
  %51 = add nsw i32 %48, -1
  store i32 %51, ptr %3, align 4, !tbaa !4
  br label %lean_dec.exit34

52:                                               ; preds = %47
  %.not.i36 = icmp eq i32 %48, 0
  br i1 %.not.i36, label %lean_dec.exit34, label %53

53:                                               ; preds = %52
  tail call void @lean_dec_ref_cold(ptr noundef nonnull %3) #11
  br label %lean_dec.exit34

lean_dec.exit34:                                  ; preds = %53, %52, %50, %lean_dec.exit35
  %54 = ptrtoint ptr %0 to i64
  %55 = and i64 %54, 1
  %.not67 = icmp eq i64 %55, 0
  br i1 %.not67, label %56, label %lean_dec.exit33

56:                                               ; preds = %lean_dec.exit34
  %57 = load i32, ptr %0, align 4, !tbaa !4
  %58 = icmp sgt i32 %57, 1
  br i1 %58, label %59, label %61, !prof !9

59:                                               ; preds = %56
  %60 = add nsw i32 %57, -1
  store i32 %60, ptr %0, align 4, !tbaa !4
  br label %lean_dec.exit33

61:                                               ; preds = %56
  %.not.i38 = icmp eq i32 %57, 0
  br i1 %.not.i38, label %lean_dec.exit33, label %62

62:                                               ; preds = %61
  tail call void @lean_dec_ref_cold(ptr noundef nonnull %0) #11
  br label %lean_dec.exit33

63:                                               ; preds = %lean_obj_tag.exit
  %64 = getelementptr inbounds nuw i8, ptr %25, i64 8
  %65 = load ptr, ptr %64, align 8, !tbaa !10
  %66 = ptrtoint ptr %65 to i64
  %67 = and i64 %66, 1
  %.not60 = icmp eq i64 %67, 0
  br i1 %.not60, label %68, label %lean_inc.exit29

68:                                               ; preds = %63
  %.val.i50 = load i32, ptr %65, align 4, !tbaa !4
  %69 = icmp sgt i32 %.val.i50, 0
  br i1 %69, label %70, label %72, !prof !9

70:                                               ; preds = %68
  %71 = add nuw i32 %.val.i50, 1
  store i32 %71, ptr %65, align 4, !tbaa !4
  br label %lean_inc.exit29

72:                                               ; preds = %68
  %.not.i51 = icmp eq i32 %.val.i50, 0
  br i1 %.not.i51, label %lean_inc.exit29, label %73

73:                                               ; preds = %72
  tail call void @lean_inc_ref_cold(ptr noundef nonnull %65) #11
  br label %lean_inc.exit29

lean_inc.exit29:                                  ; preds = %73, %72, %70, %63
  %74 = getelementptr inbounds nuw i8, ptr %25, i64 16
  %75 = load ptr, ptr %74, align 8, !tbaa !10
  %76 = ptrtoint ptr %75 to i64
  %77 = and i64 %76, 1
  %.not61 = icmp eq i64 %77, 0
  br i1 %.not61, label %78, label %lean_inc.exit28

78:                                               ; preds = %lean_inc.exit29
  %.val.i53 = load i32, ptr %75, align 4, !tbaa !4
  %79 = icmp sgt i32 %.val.i53, 0
  br i1 %79, label %80, label %82, !prof !9

80:                                               ; preds = %78
  %81 = add nuw i32 %.val.i53, 1
  store i32 %81, ptr %75, align 4, !tbaa !4
  br label %lean_inc.exit28

82:                                               ; preds = %78
  %.not.i54 = icmp eq i32 %.val.i53, 0
  br i1 %.not.i54, label %lean_inc.exit28, label %83

83:                                               ; preds = %82
  tail call void @lean_inc_ref_cold(ptr noundef nonnull %75) #11
  br label %lean_inc.exit28

lean_inc.exit28:                                  ; preds = %83, %82, %80, %lean_inc.exit29
  br i1 %.not.i48, label %84, label %lean_dec.exit32

84:                                               ; preds = %lean_inc.exit28
  %85 = load i32, ptr %25, align 4, !tbaa !4
  %86 = icmp sgt i32 %85, 1
  br i1 %86, label %87, label %89, !prof !9

87:                                               ; preds = %84
  %88 = add nsw i32 %85, -1
  store i32 %88, ptr %25, align 4, !tbaa !4
  br label %lean_dec.exit32

89:                                               ; preds = %84
  %.not.i40 = icmp eq i32 %85, 0
  br i1 %.not.i40, label %lean_dec.exit32, label %90

90:                                               ; preds = %89
  tail call void @lean_dec_ref_cold(ptr noundef nonnull %25) #11
  br label %lean_dec.exit32

lean_dec.exit32:                                  ; preds = %90, %89, %87, %lean_inc.exit28
  %91 = getelementptr inbounds nuw i8, ptr %0, i64 16
  %92 = load ptr, ptr %91, align 8, !tbaa !10
  %93 = ptrtoint ptr %92 to i64
  %94 = and i64 %93, 1
  %.not63 = icmp eq i64 %94, 0
  br i1 %.not63, label %95, label %lean_inc.exit

95:                                               ; preds = %lean_dec.exit32
  %.val.i56 = load i32, ptr %92, align 4, !tbaa !4
  %96 = icmp sgt i32 %.val.i56, 0
  br i1 %96, label %97, label %99, !prof !9

97:                                               ; preds = %95
  %98 = add nuw i32 %.val.i56, 1
  store i32 %98, ptr %92, align 4, !tbaa !4
  br label %lean_inc.exit

99:                                               ; preds = %95
  %.not.i57 = icmp eq i32 %.val.i56, 0
  br i1 %.not.i57, label %lean_inc.exit, label %100

100:                                              ; preds = %99
  tail call void @lean_inc_ref_cold(ptr noundef nonnull %92) #11
  br label %lean_inc.exit

lean_inc.exit:                                    ; preds = %100, %99, %97, %lean_dec.exit32
  %101 = ptrtoint ptr %0 to i64
  %102 = and i64 %101, 1
  %.not64 = icmp eq i64 %102, 0
  br i1 %.not64, label %103, label %lean_dec.exit

103:                                              ; preds = %lean_inc.exit
  %104 = load i32, ptr %0, align 4, !tbaa !4
  %105 = icmp sgt i32 %104, 1
  br i1 %105, label %106, label %108, !prof !9

106:                                              ; preds = %103
  %107 = add nsw i32 %104, -1
  store i32 %107, ptr %0, align 4, !tbaa !4
  br label %lean_dec.exit

108:                                              ; preds = %103
  %.not.i42 = icmp eq i32 %104, 0
  br i1 %.not.i42, label %lean_dec.exit, label %109

109:                                              ; preds = %108
  tail call void @lean_dec_ref_cold(ptr noundef nonnull %0) #11
  br label %lean_dec.exit

lean_dec.exit:                                    ; preds = %109, %108, %106, %lean_inc.exit
  %110 = tail call ptr @lean_apply_2(ptr noundef %92, ptr noundef %75, ptr noundef %24) #11
  %111 = tail call ptr @lean_apply_2(ptr noundef %3, ptr noundef %65, ptr noundef %110) #11
  br label %lean_dec.exit33

lean_dec.exit33:                                  ; preds = %lean_dec.exit34, %59, %61, %62, %lean_dec.exit
  %.0 = phi ptr [ %111, %lean_dec.exit ], [ %25, %62 ], [ %25, %61 ], [ %25, %59 ], [ %25, %lean_dec.exit34 ]
  ret ptr %.0
}